target datalayout = "e-m:e-p270:32:32-p271:32:32-p272:64:64-i64:64-f80:128-n8:16:32:64-S128"
target triple = "x86_64-pc-linux-gnu"

@.str = private unnamed_addr constant [3 x i8] c"%d\00", align 1
@.str.1 = private unnamed_addr constant [3 x i8] c"NO\00", align 1
@.str.2 = private unnamed_addr constant [4 x i8] c"%d\0A\00", align 1
@.str.3 = private unnamed_addr constant [3 x i8] c"%c\00", align 1
@.str.4 = private unnamed_addr constant [4 x i8] c"%c\0A\00", align 1

; Function Attrs: noinline nounwind uwtable
define dso_local i32 @main() #0 {
  %1 = alloca i32, align 4
  %2 = alloca [501 x i8], align 16
  %3 = alloca [501 x i32], align 16
  %4 = alloca i32, align 4
  %5 = alloca i32, align 4
  %6 = alloca i32, align 4
  %7 = alloca i32, align 4
  %8 = alloca i32, align 4
  %9 = alloca i32, align 4
  %10 = alloca i32, align 4
  store i32 0, i32* %1, align 4
  %11 = bitcast [501 x i32]* %3 to i8*
  call void @llvm.memset.p0i8.i64(i8* align 16 %11, i8 0, i64 2004, i1 false)
  %12 = call i32 (i8*, ...) @__isoc99_scanf(i8* getelementptr inbounds ([3 x i8], [3 x i8]* @.str, i64 0, i64 0), i32* %4)
  %13 = call i32 @getchar()
  %14 = getelementptr inbounds [501 x i8], [501 x i8]* %2, i64 0, i64 0
  %15 = call i32 (i8*, ...) bitcast (i32 (...)* @gets to i32 (i8*, ...)*)(i8* %14)
  %16 = getelementptr inbounds [501 x i8], [501 x i8]* %2, i64 0, i64 0
  %17 = call i64 @strlen(i8* %16) #4
  %18 = trunc i64 %17 to i32
  store i32 %18, i32* %5, align 4
  store i32 0, i32* %6, align 4
  br label %19

19:                                               ; preds = %74, %0
  %20 = load i32, i32* %6, align 4
  %21 = load i32, i32* %5, align 4
  %22 = load i32, i32* %4, align 4
  %23 = sub nsw i32 %21, %22
  %24 = icmp sle i32 %20, %23
  br i1 %24, label %25, label %77

25:                                               ; preds = %19
  %26 = load i32, i32* %6, align 4
  %27 = add nsw i32 %26, 1
  store i32 %27, i32* %7, align 4
  br label %28

28:                                               ; preds = %70, %25
  %29 = load i32, i32* %7, align 4
  %30 = load i32, i32* %5, align 4
  %31 = load i32, i32* %4, align 4
  %32 = sub nsw i32 %30, %31
  %33 = icmp sle i32 %29, %32
  br i1 %33, label %34, label %73

34:                                               ; preds = %28
  store i32 0, i32* %10, align 4
  store i32 0, i32* %8, align 4
  br label %35

35:                                               ; preds = %57, %34
  %36 = load i32, i32* %8, align 4
  %37 = load i32, i32* %4, align 4
  %38 = icmp slt i32 %36, %37
  br i1 %38, label %39, label %60

39:                                               ; preds = %35
  %40 = load i32, i32* %6, align 4
  %41 = load i32, i32* %8, align 4
  %42 = add nsw i32 %40, %41
  %43 = sext i32 %42 to i64
  %44 = getelementptr inbounds [501 x i8], [501 x i8]* %2, i64 0, i64 %43
  %45 = load i8, i8* %44, align 1
  %46 = sext i8 %45 to i32
  %47 = load i32, i32* %7, align 4
  %48 = load i32, i32* %8, align 4
  %49 = add nsw i32 %47, %48
  %50 = sext i32 %49 to i64
  %51 = getelementptr inbounds [501 x i8], [501 x i8]* %2, i64 0, i64 %50
  %52 = load i8, i8* %51, align 1
  %53 = sext i8 %52 to i32
  %54 = icmp ne i32 %46, %53
  br i1 %54, label %55, label %56

55:                                               ; preds = %39
  store i32 -1, i32* %10, align 4
  br label %56

56:                                               ; preds = %55, %39
  br label %57

57:                                               ; preds = %56
  %58 = load i32, i32* %8, align 4
  %59 = add nsw i32 %58, 1
  store i32 %59, i32* %8, align 4
  br label %35

60:                                               ; preds = %35
  %61 = load i32, i32* %10, align 4
  %62 = icmp eq i32 %61, 0
  br i1 %62, label %63, label %69

63:                                               ; preds = %60
  %64 = load i32, i32* %6, align 4
  %65 = sext i32 %64 to i64
  %66 = getelementptr inbounds [501 x i32], [501 x i32]* %3, i64 0, i64 %65
  %67 = load i32, i32* %66, align 4
  %68 = add nsw i32 %67, 1
  store i32 %68, i32* %66, align 4
  br label %69

69:                                               ; preds = %63, %60
  br label %70

70:                                               ; preds = %69
  %71 = load i32, i32* %7, align 4
  %72 = add nsw i32 %71, 1
  store i32 %72, i32* %7, align 4
  br label %28

73:                                               ; preds = %28
  br label %74

74:                                               ; preds = %73
  %75 = load i32, i32* %6, align 4
  %76 = add nsw i32 %75, 1
  store i32 %76, i32* %6, align 4
  br label %19

77:                                               ; preds = %19
  %78 = getelementptr inbounds [501 x i32], [501 x i32]* %3, i64 0, i64 0
  %79 = load i32, i32* %78, align 16
  store i32 %79, i32* %9, align 4
  store i32 0, i32* %6, align 4
  br label %80

80:                                               ; preds = %99, %77
  %81 = load i32, i32* %6, align 4
  %82 = load i32, i32* %5, align 4
  %83 = load i32, i32* %4, align 4
  %84 = sub nsw i32 %82, %83
  %85 = icmp sle i32 %81, %84
  br i1 %85, label %86, label %102

86:                                               ; preds = %80
  %87 = load i32, i32* %9, align 4
  %88 = load i32, i32* %6, align 4
  %89 = sext i32 %88 to i64
  %90 = getelementptr inbounds [501 x i32], [501 x i32]* %3, i64 0, i64 %89
  %91 = load i32, i32* %90, align 4
  %92 = icmp slt i32 %87, %91
  br i1 %92, label %93, label %98

93:                                               ; preds = %86
  %94 = load i32, i32* %6, align 4
  %95 = sext i32 %94 to i64
  %96 = getelementptr inbounds [501 x i32], [501 x i32]* %3, i64 0, i64 %95
  %97 = load i32, i32* %96, align 4
  store i32 %97, i32* %9, align 4
  br label %98

98:                                               ; preds = %93, %86
  br label %99

99:                                               ; preds = %98
  %100 = load i32, i32* %6, align 4
  %101 = add nsw i32 %100, 1
  store i32 %101, i32* %6, align 4
  br label %80

102:                                              ; preds = %80
  %103 = load i32, i32* %9, align 4
  %104 = icmp eq i32 %103, 0
  br i1 %104, label %105, label %107

105:                                              ; preds = %102
  %106 = call i32 (i8*, ...) @printf(i8* getelementptr inbounds ([3 x i8], [3 x i8]* @.str.1, i64 0, i64 0))
  br label %155

107:                                              ; preds = %102
  %108 = load i32, i32* %9, align 4
  %109 = add nsw i32 %108, 1
  %110 = call i32 (i8*, ...) @printf(i8* getelementptr inbounds ([4 x i8], [4 x i8]* @.str.2, i64 0, i64 0), i32 %109)
  store i32 0, i32* %6, align 4
  br label %111

111:                                              ; preds = %151, %107
  %112 = load i32, i32* %6, align 4
  %113 = load i32, i32* %5, align 4
  %114 = load i32, i32* %4, align 4
  %115 = sub nsw i32 %113, %114
  %116 = icmp sle i32 %112, %115
  br i1 %116, label %117, label %154

117:                                              ; preds = %111
  %118 = load i32, i32* %6, align 4
  %119 = sext i32 %118 to i64
  %120 = getelementptr inbounds [501 x i32], [501 x i32]* %3, i64 0, i64 %119
  %121 = load i32, i32* %120, align 4
  %122 = load i32, i32* %9, align 4
  %123 = icmp eq i32 %121, %122
  br i1 %123, label %124, label %150

124:                                              ; preds = %117
  %125 = load i32, i32* %6, align 4
  store i32 %125, i32* %8, align 4
  store i32 0, i32* %7, align 4
  br label %126

126:                                              ; preds = %140, %124
  %127 = load i32, i32* %7, align 4
  %128 = load i32, i32* %4, align 4
  %129 = sub nsw i32 %128, 1
  %130 = icmp slt i32 %127, %129
  br i1 %130, label %131, label %143

131:                                              ; preds = %126
  %132 = load i32, i32* %8, align 4
  %133 = sext i32 %132 to i64
  %134 = getelementptr inbounds [501 x i8], [501 x i8]* %2, i64 0, i64 %133
  %135 = load i8, i8* %134, align 1
  %136 = sext i8 %135 to i32
  %137 = call i32 (i8*, ...) @printf(i8* getelementptr inbounds ([3 x i8], [3 x i8]* @.str.3, i64 0, i64 0), i32 %136)
  %138 = load i32, i32* %8, align 4
  %139 = add nsw i32 %138, 1
  store i32 %139, i32* %8, align 4
  br label %140

140:                                              ; preds = %131
  %141 = load i32, i32* %7, align 4
  %142 = add nsw i32 %141, 1
  store i32 %142, i32* %7, align 4
  br label %126

143:                                              ; preds = %126
  %144 = load i32, i32* %8, align 4
  %145 = sext i32 %144 to i64
  %146 = getelementptr inbounds [501 x i8], [501 x i8]* %2, i64 0, i64 %145
  %147 = load i8, i8* %146, align 1
  %148 = sext i8 %147 to i32
  %149 = call i32 (i8*, ...) @printf(i8* getelementptr inbounds ([4 x i8], [4 x i8]* @.str.4, i64 0, i64 0), i32 %148)
  br label %150

150:                                              ; preds = %143, %117
  br label %151

151:                                              ; preds = %150
  %152 = load i32, i32* %6, align 4
  %153 = add nsw i32 %152, 1
  store i32 %153, i32* %6, align 4
  br label %111

154:                                              ; preds = %111
  br label %155

155:                                              ; preds = %154, %105
  ret i32 0
}